target datalayout = "e-m:e-p270:32:32-p271:32:32-p272:64:64-i64:64-i128:128-f80:128-n8:16:32:64-S128"
target triple = "x86_64-pc-linux-gnu"

; Function Attrs: nounwind uwtable
define internal void @dc_top_32x32_c(ptr noundef %0, i64 noundef %1, ptr noundef %2, ptr noundef %3) #1 {
  %5 = alloca ptr, align 8
  %6 = alloca i64, align 8
  %7 = alloca ptr, align 8
  %8 = alloca ptr, align 8
  %9 = alloca ptr, align 8
  %10 = alloca ptr, align 8
  %11 = alloca i32, align 4
  %12 = alloca i32, align 4
  store ptr %0, ptr %5, align 8, !tbaa !10
  store i64 %1, ptr %6, align 8, !tbaa !12
  store ptr %2, ptr %7, align 8, !tbaa !10
  store ptr %3, ptr %8, align 8, !tbaa !10
  call void @llvm.lifetime.start.p0(i64 8, ptr %9) #10
  %13 = load ptr, ptr %5, align 8, !tbaa !10
  store ptr %13, ptr %9, align 8, !tbaa !10
  call void @llvm.lifetime.start.p0(i64 8, ptr %10) #10
  %14 = load ptr, ptr %8, align 8, !tbaa !10
  store ptr %14, ptr %10, align 8, !tbaa !10
  call void @llvm.lifetime.start.p0(i64 4, ptr %11) #10
  %15 = load ptr, ptr %10, align 8, !tbaa !10
  %16 = getelementptr inbounds i8, ptr %15, i64 0
  %17 = load i8, ptr %16, align 1, !tbaa !14
  %18 = zext i8 %17 to i32
  %19 = load ptr, ptr %10, align 8, !tbaa !10
  %20 = getelementptr inbounds i8, ptr %19, i64 1
  %21 = load i8, ptr %20, align 1, !tbaa !14
  %22 = zext i8 %21 to i32
  %23 = add nsw i32 %18, %22
  %24 = load ptr, ptr %10, align 8, !tbaa !10
  %25 = getelementptr inbounds i8, ptr %24, i64 2
  %26 = load i8, ptr %25, align 1, !tbaa !14
  %27 = zext i8 %26 to i32
  %28 = add nsw i32 %23, %27
  %29 = load ptr, ptr %10, align 8, !tbaa !10
  %30 = getelementptr inbounds i8, ptr %29, i64 3
  %31 = load i8, ptr %30, align 1, !tbaa !14
  %32 = zext i8 %31 to i32
  %33 = add nsw i32 %28, %32
  %34 = load ptr, ptr %10, align 8, !tbaa !10
  %35 = getelementptr inbounds i8, ptr %34, i64 4
  %36 = load i8, ptr %35, align 1, !tbaa !14
  %37 = zext i8 %36 to i32
  %38 = add nsw i32 %33, %37
  %39 = load ptr, ptr %10, align 8, !tbaa !10
  %40 = getelementptr inbounds i8, ptr %39, i64 5
  %41 = load i8, ptr %40, align 1, !tbaa !14
  %42 = zext i8 %41 to i32
  %43 = add nsw i32 %38, %42
  %44 = load ptr, ptr %10, align 8, !tbaa !10
  %45 = getelementptr inbounds i8, ptr %44, i64 6
  %46 = load i8, ptr %45, align 1, !tbaa !14
  %47 = zext i8 %46 to i32
  %48 = add nsw i32 %43, %47
  %49 = load ptr, ptr %10, align 8, !tbaa !10
  %50 = getelementptr inbounds i8, ptr %49, i64 7
  %51 = load i8, ptr %50, align 1, !tbaa !14
  %52 = zext i8 %51 to i32
  %53 = add nsw i32 %48, %52
  %54 = load ptr, ptr %10, align 8, !tbaa !10
  %55 = getelementptr inbounds i8, ptr %54, i64 8
  %56 = load i8, ptr %55, align 1, !tbaa !14
  %57 = zext i8 %56 to i32
  %58 = add nsw i32 %53, %57
  %59 = load ptr, ptr %10, align 8, !tbaa !10
  %60 = getelementptr inbounds i8, ptr %59, i64 9
  %61 = load i8, ptr %60, align 1, !tbaa !14
  %62 = zext i8 %61 to i32
  %63 = add nsw i32 %58, %62
  %64 = load ptr, ptr %10, align 8, !tbaa !10
  %65 = getelementptr inbounds i8, ptr %64, i64 10
  %66 = load i8, ptr %65, align 1, !tbaa !14
  %67 = zext i8 %66 to i32
  %68 = add nsw i32 %63, %67
  %69 = load ptr, ptr %10, align 8, !tbaa !10
  %70 = getelementptr inbounds i8, ptr %69, i64 11
  %71 = load i8, ptr %70, align 1, !tbaa !14
  %72 = zext i8 %71 to i32
  %73 = add nsw i32 %68, %72
  %74 = load ptr, ptr %10, align 8, !tbaa !10
  %75 = getelementptr inbounds i8, ptr %74, i64 12
  %76 = load i8, ptr %75, align 1, !tbaa !14
  %77 = zext i8 %76 to i32
  %78 = add nsw i32 %73, %77
  %79 = load ptr, ptr %10, align 8, !tbaa !10
  %80 = getelementptr inbounds i8, ptr %79, i64 13
  %81 = load i8, ptr %80, align 1, !tbaa !14
  %82 = zext i8 %81 to i32
  %83 = add nsw i32 %78, %82
  %84 = load ptr, ptr %10, align 8, !tbaa !10
  %85 = getelementptr inbounds i8, ptr %84, i64 14
  %86 = load i8, ptr %85, align 1, !tbaa !14
  %87 = zext i8 %86 to i32
  %88 = add nsw i32 %83, %87
  %89 = load ptr, ptr %10, align 8, !tbaa !10
  %90 = getelementptr inbounds i8, ptr %89, i64 15
  %91 = load i8, ptr %90, align 1, !tbaa !14
  %92 = zext i8 %91 to i32
  %93 = add nsw i32 %88, %92
  %94 = load ptr, ptr %10, align 8, !tbaa !10
  %95 = getelementptr inbounds i8, ptr %94, i64 16
  %96 = load i8, ptr %95, align 1, !tbaa !14
  %97 = zext i8 %96 to i32
  %98 = add nsw i32 %93, %97
  %99 = load ptr, ptr %10, align 8, !tbaa !10
  %100 = getelementptr inbounds i8, ptr %99, i64 17
  %101 = load i8, ptr %100, align 1, !tbaa !14
  %102 = zext i8 %101 to i32
  %103 = add nsw i32 %98, %102
  %104 = load ptr, ptr %10, align 8, !tbaa !10
  %105 = getelementptr inbounds i8, ptr %104, i64 18
  %106 = load i8, ptr %105, align 1, !tbaa !14
  %107 = zext i8 %106 to i32
  %108 = add nsw i32 %103, %107
  %109 = load ptr, ptr %10, align 8, !tbaa !10
  %110 = getelementptr inbounds i8, ptr %109, i64 19
  %111 = load i8, ptr %110, align 1, !tbaa !14
  %112 = zext i8 %111 to i32
  %113 = add nsw i32 %108, %112
  %114 = load ptr, ptr %10, align 8, !tbaa !10
  %115 = getelementptr inbounds i8, ptr %114, i64 20
  %116 = load i8, ptr %115, align 1, !tbaa !14
  %117 = zext i8 %116 to i32
  %118 = add nsw i32 %113, %117
  %119 = load ptr, ptr %10, align 8, !tbaa !10
  %120 = getelementptr inbounds i8, ptr %119, i64 21
  %121 = load i8, ptr %120, align 1, !tbaa !14
  %122 = zext i8 %121 to i32
  %123 = add nsw i32 %118, %122
  %124 = load ptr, ptr %10, align 8, !tbaa !10
  %125 = getelementptr inbounds i8, ptr %124, i64 22
  %126 = load i8, ptr %125, align 1, !tbaa !14
  %127 = zext i8 %126 to i32
  %128 = add nsw i32 %123, %127
  %129 = load ptr, ptr %10, align 8, !tbaa !10
  %130 = getelementptr inbounds i8, ptr %129, i64 23
  %131 = load i8, ptr %130, align 1, !tbaa !14
  %132 = zext i8 %131 to i32
  %133 = add nsw i32 %128, %132
  %134 = load ptr, ptr %10, align 8, !tbaa !10
  %135 = getelementptr inbounds i8, ptr %134, i64 24
  %136 = load i8, ptr %135, align 1, !tbaa !14
  %137 = zext i8 %136 to i32
  %138 = add nsw i32 %133, %137
  %139 = load ptr, ptr %10, align 8, !tbaa !10
  %140 = getelementptr inbounds i8, ptr %139, i64 25
  %141 = load i8, ptr %140, align 1, !tbaa !14
  %142 = zext i8 %141 to i32
  %143 = add nsw i32 %138, %142
  %144 = load ptr, ptr %10, align 8, !tbaa !10
  %145 = getelementptr inbounds i8, ptr %144, i64 26
  %146 = load i8, ptr %145, align 1, !tbaa !14
  %147 = zext i8 %146 to i32
  %148 = add nsw i32 %143, %147
  %149 = load ptr, ptr %10, align 8, !tbaa !10
  %150 = getelementptr inbounds i8, ptr %149, i64 27
  %151 = load i8, ptr %150, align 1, !tbaa !14
  %152 = zext i8 %151 to i32
  %153 = add nsw i32 %148, %152
  %154 = load ptr, ptr %10, align 8, !tbaa !10
  %155 = getelementptr inbounds i8, ptr %154, i64 28
  %156 = load i8, ptr %155, align 1, !tbaa !14
  %157 = zext i8 %156 to i32
  %158 = add nsw i32 %153, %157
  %159 = load ptr, ptr %10, align 8, !tbaa !10
  %160 = getelementptr inbounds i8, ptr %159, i64 29
  %161 = load i8, ptr %160, align 1, !tbaa !14
  %162 = zext i8 %161 to i32
  %163 = add nsw i32 %158, %162
  %164 = load ptr, ptr %10, align 8, !tbaa !10
  %165 = getelementptr inbounds i8, ptr %164, i64 30
  %166 = load i8, ptr %165, align 1, !tbaa !14
  %167 = zext i8 %166 to i32
  %168 = add nsw i32 %163, %167
  %169 = load ptr, ptr %10, align 8, !tbaa !10
  %170 = getelementptr inbounds i8, ptr %169, i64 31
  %171 = load i8, ptr %170, align 1, !tbaa !14
  %172 = zext i8 %171 to i32
  %173 = add nsw i32 %168, %172
  %174 = add nsw i32 %173, 16
  %175 = ashr i32 %174, 5
  %176 = mul i32 %175, 16843009
  store i32 %176, ptr %11, align 4, !tbaa !15
  call void @llvm.lifetime.start.p0(i64 4, ptr %12) #10
  %177 = load i64, ptr %6, align 8, !tbaa !12
  %178 = udiv i64 %177, 1
  store i64 %178, ptr %6, align 8, !tbaa !12
  store i32 0, ptr %12, align 4, !tbaa !15
  br label %179

179:                                              ; preds = %210, %4
  %180 = load i32, ptr %12, align 4, !tbaa !15
  %181 = icmp slt i32 %180, 32
  br i1 %181, label %182, label %213

182:                                              ; preds = %179
  %183 = load i32, ptr %11, align 4, !tbaa !15
  %184 = load ptr, ptr %9, align 8, !tbaa !10
  %185 = getelementptr inbounds i8, ptr %184, i64 0
  store i32 %183, ptr %185, align 4, !tbaa !14
  %186 = load i32, ptr %11, align 4, !tbaa !15
  %187 = load ptr, ptr %9, align 8, !tbaa !10
  %188 = getelementptr inbounds i8, ptr %187, i64 4
  store i32 %186, ptr %188, align 4, !tbaa !14
  %189 = load i32, ptr %11, align 4, !tbaa !15
  %190 = load ptr, ptr %9, align 8, !tbaa !10
  %191 = getelementptr inbounds i8, ptr %190, i64 8
  store i32 %189, ptr %191, align 4, !tbaa !14
  %192 = load i32, ptr %11, align 4, !tbaa !15
  %193 = load ptr, ptr %9, align 8, !tbaa !10
  %194 = getelementptr inbounds i8, ptr %193, i64 12
  store i32 %192, ptr %194, align 4, !tbaa !14
  %195 = load i32, ptr %11, align 4, !tbaa !15
  %196 = load ptr, ptr %9, align 8, !tbaa !10
  %197 = getelementptr inbounds i8, ptr %196, i64 16
  store i32 %195, ptr %197, align 4, !tbaa !14
  %198 = load i32, ptr %11, align 4, !tbaa !15
  %199 = load ptr, ptr %9, align 8, !tbaa !10
  %200 = getelementptr inbounds i8, ptr %199, i64 20
  store i32 %198, ptr %200, align 4, !tbaa !14
  %201 = load i32, ptr %11, align 4, !tbaa !15
  %202 = load ptr, ptr %9, align 8, !tbaa !10
  %203 = getelementptr inbounds i8, ptr %202, i64 24
  store i32 %201, ptr %203, align 4, !tbaa !14
  %204 = load i32, ptr %11, align 4, !tbaa !15
  %205 = load ptr, ptr %9, align 8, !tbaa !10
  %206 = getelementptr inbounds i8, ptr %205, i64 28
  store i32 %204, ptr %206, align 4, !tbaa !14
  %207 = load i64, ptr %6, align 8, !tbaa !12
  %208 = load ptr, ptr %9, align 8, !tbaa !10
  %209 = getelementptr inbounds i8, ptr %208, i64 %207
  store ptr %209, ptr %9, align 8, !tbaa !10
  br label %210

210:                                              ; preds = %182
  %211 = load i32, ptr %12, align 4, !tbaa !15
  %212 = add nsw i32 %211, 1
  store i32 %212, ptr %12, align 4, !tbaa !15
  br label %179, !llvm.loop !83

213:                                              ; preds = %179
  call void @llvm.lifetime.end.p0(i64 4, ptr %12) #10
  call void @llvm.lifetime.end.p0(i64 4, ptr %11) #10
  call void @llvm.lifetime.end.p0(i64 8, ptr %10) #10
  call void @llvm.lifetime.end.p0(i64 8, ptr %9) #10
  ret void
}